target datalayout = "e-m:e-p270:32:32-p271:32:32-p272:64:64-i64:64-i128:128-f80:128-n8:16:32:64-S128"
target triple = "x86_64-pc-linux-gnu"

; Function Attrs: inlinehint nounwind uwtable
define internal i32 @Abc_LitNotCond(i32 noundef %0, i32 noundef %1) #1 {
  %3 = alloca i32, align 4
  %4 = alloca i32, align 4
  store i32 %0, ptr %3, align 4, !tbaa !27
  store i32 %1, ptr %4, align 4, !tbaa !27
  %5 = load i32, ptr %3, align 4, !tbaa !27
  %6 = load i32, ptr %4, align 4, !tbaa !27
  %7 = icmp sgt i32 %6, 0
  %8 = zext i1 %7 to i32
  %9 = xor i32 %5, %8
  ret i32 %9
}

; Function Attrs: inlinehint nounwind uwtable
define internal void @If_DsdMergeMatches(ptr noundef %0, ptr noundef %1) #1 {
  %3 = alloca ptr, align 8
  %4 = alloca ptr, align 8
  %5 = alloca [12 x i32], align 16
  %6 = alloca i32, align 4
  %7 = alloca i32, align 4
  store ptr %0, ptr %3, align 8, !tbaa !64
  store ptr %1, ptr %4, align 8, !tbaa !60
  call void @llvm.lifetime.start.p0(i64 48, ptr %5) #15
  call void @llvm.lifetime.start.p0(i64 4, ptr %6) #15
  call void @llvm.lifetime.start.p0(i64 4, ptr %7) #15
  store i32 0, ptr %7, align 4, !tbaa !27
  store i32 0, ptr %6, align 4, !tbaa !27
  br label %8

8:                                                ; preds = %101, %2
  %9 = load ptr, ptr %3, align 8, !tbaa !64
  %10 = load i32, ptr %6, align 4, !tbaa !27
  %11 = sext i32 %10 to i64
  %12 = getelementptr inbounds i8, ptr %9, i64 %11
  %13 = load i8, ptr %12, align 1, !tbaa !124
  %14 = icmp ne i8 %13, 0
  br i1 %14, label %15, label %104

15:                                               ; preds = %8
  %16 = load ptr, ptr %4, align 8, !tbaa !60
  %17 = load i32, ptr %6, align 4, !tbaa !27
  %18 = sext i32 %17 to i64
  %19 = getelementptr inbounds i32, ptr %16, i64 %18
  store i32 0, ptr %19, align 4, !tbaa !27
  %20 = load ptr, ptr %3, align 8, !tbaa !64
  %21 = load i32, ptr %6, align 4, !tbaa !27
  %22 = sext i32 %21 to i64
  %23 = getelementptr inbounds i8, ptr %20, i64 %22
  %24 = load i8, ptr %23, align 1, !tbaa !124
  %25 = sext i8 %24 to i32
  %26 = icmp eq i32 %25, 40
  br i1 %26, label %51, label %27

27:                                               ; preds = %15
  %28 = load ptr, ptr %3, align 8, !tbaa !64
  %29 = load i32, ptr %6, align 4, !tbaa !27
  %30 = sext i32 %29 to i64
  %31 = getelementptr inbounds i8, ptr %28, i64 %30
  %32 = load i8, ptr %31, align 1, !tbaa !124
  %33 = sext i8 %32 to i32
  %34 = icmp eq i32 %33, 91
  br i1 %34, label %51, label %35

35:                                               ; preds = %27
  %36 = load ptr, ptr %3, align 8, !tbaa !64
  %37 = load i32, ptr %6, align 4, !tbaa !27
  %38 = sext i32 %37 to i64
  %39 = getelementptr inbounds i8, ptr %36, i64 %38
  %40 = load i8, ptr %39, align 1, !tbaa !124
  %41 = sext i8 %40 to i32
  %42 = icmp eq i32 %41, 60
  br i1 %42, label %51, label %43

43:                                               ; preds = %35
  %44 = load ptr, ptr %3, align 8, !tbaa !64
  %45 = load i32, ptr %6, align 4, !tbaa !27
  %46 = sext i32 %45 to i64
  %47 = getelementptr inbounds i8, ptr %44, i64 %46
  %48 = load i8, ptr %47, align 1, !tbaa !124
  %49 = sext i8 %48 to i32
  %50 = icmp eq i32 %49, 123
  br i1 %50, label %51, label %57

51:                                               ; preds = %43, %35, %27, %15
  %52 = load i32, ptr %6, align 4, !tbaa !27
  %53 = load i32, ptr %7, align 4, !tbaa !27
  %54 = add nsw i32 %53, 1
  store i32 %54, ptr %7, align 4, !tbaa !27
  %55 = sext i32 %53 to i64
  %56 = getelementptr inbounds [12 x i32], ptr %5, i64 0, i64 %55
  store i32 %52, ptr %56, align 4, !tbaa !27
  br label %100

57:                                               ; preds = %43
  %58 = load ptr, ptr %3, align 8, !tbaa !64
  %59 = load i32, ptr %6, align 4, !tbaa !27
  %60 = sext i32 %59 to i64
  %61 = getelementptr inbounds i8, ptr %58, i64 %60
  %62 = load i8, ptr %61, align 1, !tbaa !124
  %63 = sext i8 %62 to i32
  %64 = icmp eq i32 %63, 41
  br i1 %64, label %89, label %65

65:                                               ; preds = %57
  %66 = load ptr, ptr %3, align 8, !tbaa !64
  %67 = load i32, ptr %6, align 4, !tbaa !27
  %68 = sext i32 %67 to i64
  %69 = getelementptr inbounds i8, ptr %66, i64 %68
  %70 = load i8, ptr %69, align 1, !tbaa !124
  %71 = sext i8 %70 to i32
  %72 = icmp eq i32 %71, 93
  br i1 %72, label %89, label %73

73:                                               ; preds = %65
  %74 = load ptr, ptr %3, align 8, !tbaa !64
  %75 = load i32, ptr %6, align 4, !tbaa !27
  %76 = sext i32 %75 to i64
  %77 = getelementptr inbounds i8, ptr %74, i64 %76
  %78 = load i8, ptr %77, align 1, !tbaa !124
  %79 = sext i8 %78 to i32
  %80 = icmp eq i32 %79, 62
  br i1 %80, label %89, label %81

81:                                               ; preds = %73
  %82 = load ptr, ptr %3, align 8, !tbaa !64
  %83 = load i32, ptr %6, align 4, !tbaa !27
  %84 = sext i32 %83 to i64
  %85 = getelementptr inbounds i8, ptr %82, i64 %84
  %86 = load i8, ptr %85, align 1, !tbaa !124
  %87 = sext i8 %86 to i32
  %88 = icmp eq i32 %87, 125
  br i1 %88, label %89, label %99

89:                                               ; preds = %81, %73, %65, %57
  %90 = load i32, ptr %6, align 4, !tbaa !27
  %91 = load ptr, ptr %4, align 8, !tbaa !60
  %92 = load i32, ptr %7, align 4, !tbaa !27
  %93 = add nsw i32 %92, -1
  store i32 %93, ptr %7, align 4, !tbaa !27
  %94 = sext i32 %93 to i64
  %95 = getelementptr inbounds [12 x i32], ptr %5, i64 0, i64 %94
  %96 = load i32, ptr %95, align 4, !tbaa !27
  %97 = sext i32 %96 to i64
  %98 = getelementptr inbounds i32, ptr %91, i64 %97
  store i32 %90, ptr %98, align 4, !tbaa !27
  br label %99

99:                                               ; preds = %89, %81
  br label %100

100:                                              ; preds = %99, %51
  br label %101

101:                                              ; preds = %100
  %102 = load i32, ptr %6, align 4, !tbaa !27
  %103 = add nsw i32 %102, 1
  store i32 %103, ptr %6, align 4, !tbaa !27
  br label %8, !llvm.loop !231

104:                                              ; preds = %8
  call void @llvm.lifetime.end.p0(i64 4, ptr %7) #15
  call void @llvm.lifetime.end.p0(i64 4, ptr %6) #15
  call void @llvm.lifetime.end.p0(i64 48, ptr %5) #15
  ret void
}

; Function Attrs: inlinehint nounwind uwtable
define internal i32 @Dau_DsdReadVar(ptr noundef %0) #1 {
  %2 = alloca ptr, align 8
  store ptr %0, ptr %2, align 8, !tbaa !64
  %3 = load ptr, ptr %2, align 8, !tbaa !64
  %4 = load i8, ptr %3, align 1, !tbaa !124
  %5 = sext i8 %4 to i32
  %6 = icmp eq i32 %5, 33
  br i1 %6, label %7, label %10

7:                                                ; preds = %1
  %8 = load ptr, ptr %2, align 8, !tbaa !64
  %9 = getelementptr inbounds nuw i8, ptr %8, i32 1
  store ptr %9, ptr %2, align 8, !tbaa !64
  br label %10

10:                                               ; preds = %7, %1
  %11 = load ptr, ptr %2, align 8, !tbaa !64
  %12 = load i8, ptr %11, align 1, !tbaa !124
  %13 = sext i8 %12 to i32
  %14 = sub nsw i32 %13, 97
  ret i32 %14
}

; Function Attrs: inlinehint nounwind uwtable
define internal i32 @Dau_DsdIsVar(ptr noundef %0) #1 {
  %2 = alloca ptr, align 8
  store ptr %0, ptr %2, align 8, !tbaa !64
  %3 = load ptr, ptr %2, align 8, !tbaa !64
  %4 = load i8, ptr %3, align 1, !tbaa !124
  %5 = sext i8 %4 to i32
  %6 = icmp eq i32 %5, 33
  br i1 %6, label %7, label %10

7:                                                ; preds = %1
  %8 = load ptr, ptr %2, align 8, !tbaa !64
  %9 = getelementptr inbounds nuw i8, ptr %8, i32 1
  store ptr %9, ptr %2, align 8, !tbaa !64
  br label %10

10:                                               ; preds = %7, %1
  %11 = load ptr, ptr %2, align 8, !tbaa !64
  %12 = load i8, ptr %11, align 1, !tbaa !124
  %13 = sext i8 %12 to i32
  %14 = icmp sge i32 %13, 97
  br i1 %14, label %15, label %20

15:                                               ; preds = %10
  %16 = load ptr, ptr %2, align 8, !tbaa !64
  %17 = load i8, ptr %16, align 1, !tbaa !124
  %18 = sext i8 %17 to i32
  %19 = icmp sle i32 %18, 122
  br label %20

20:                                               ; preds = %15, %10
  %21 = phi i1 [ false, %10 ], [ %19, %15 ]
  %22 = zext i1 %21 to i32
  ret i32 %22
}

; Function Attrs: inlinehint nounwind uwtable
define internal i32 @Dau_DsdIsConst1(ptr noundef %0) #1 {
  %2 = alloca ptr, align 8
  store ptr %0, ptr %2, align 8, !tbaa !64
  %3 = load ptr, ptr %2, align 8, !tbaa !64
  %4 = getelementptr inbounds i8, ptr %3, i64 0
  %5 = load i8, ptr %4, align 1, !tbaa !124
  %6 = sext i8 %5 to i32
  %7 = icmp eq i32 %6, 49
  br i1 %7, label %8, label %14

8:                                                ; preds = %1
  %9 = load ptr, ptr %2, align 8, !tbaa !64
  %10 = getelementptr inbounds i8, ptr %9, i64 1
  %11 = load i8, ptr %10, align 1, !tbaa !124
  %12 = sext i8 %11 to i32
  %13 = icmp eq i32 %12, 0
  br label %14

14:                                               ; preds = %8, %1
  %15 = phi i1 [ false, %1 ], [ %13, %8 ]
  %16 = zext i1 %15 to i32
  ret i32 %16
}

; Function Attrs: inlinehint nounwind uwtable
define internal i32 @Dau_DsdIsConst0(ptr noundef %0) #1 {
  %2 = alloca ptr, align 8
  store ptr %0, ptr %2, align 8, !tbaa !64
  %3 = load ptr, ptr %2, align 8, !tbaa !64
  %4 = getelementptr inbounds i8, ptr %3, i64 0
  %5 = load i8, ptr %4, align 1, !tbaa !124
  %6 = sext i8 %5 to i32
  %7 = icmp eq i32 %6, 48
  br i1 %7, label %8, label %14

8:                                                ; preds = %1
  %9 = load ptr, ptr %2, align 8, !tbaa !64
  %10 = getelementptr inbounds i8, ptr %9, i64 1
  %11 = load i8, ptr %10, align 1, !tbaa !124
  %12 = sext i8 %11 to i32
  %13 = icmp eq i32 %12, 0
  br label %14

14:                                               ; preds = %8, %1
  %15 = phi i1 [ false, %1 ], [ %13, %8 ]
  %16 = zext i1 %15 to i32
  ret i32 %16
}

; Function Attrs: nounwind uwtable
define i32 @If_DsdManAddDsd(ptr noundef %0, ptr noundef %1, ptr noundef %2, ptr noundef %3, ptr noundef %4) #0 {
  %6 = alloca ptr, align 8
  %7 = alloca ptr, align 8
  %8 = alloca ptr, align 8
  %9 = alloca ptr, align 8
  %10 = alloca ptr, align 8
  %11 = alloca i32, align 4
  %12 = alloca i32, align 4
  %13 = alloca [2000 x i32], align 16
  store ptr %0, ptr %6, align 8, !tbaa !3
  store ptr %1, ptr %7, align 8, !tbaa !64
  store ptr %2, ptr %8, align 8, !tbaa !76
  store ptr %3, ptr %9, align 8, !tbaa !64
  store ptr %4, ptr %10, align 8, !tbaa !60
  call void @llvm.lifetime.start.p0(i64 4, ptr %11) #15
  store i32 -1, ptr %11, align 4, !tbaa !27
  call void @llvm.lifetime.start.p0(i64 4, ptr %12) #15
  store i32 0, ptr %12, align 4, !tbaa !27
  %14 = load ptr, ptr %7, align 8, !tbaa !64
  %15 = load i8, ptr %14, align 1, !tbaa !124
  %16 = sext i8 %15 to i32
  %17 = icmp eq i32 %16, 33
  br i1 %17, label %18, label %21

18:                                               ; preds = %5
  %19 = load ptr, ptr %7, align 8, !tbaa !64
  %20 = getelementptr inbounds nuw i8, ptr %19, i32 1
  store ptr %20, ptr %7, align 8, !tbaa !64
  store i32 1, ptr %12, align 4, !tbaa !27
  br label %21

21:                                               ; preds = %18, %5
  %22 = load ptr, ptr %7, align 8, !tbaa !64
  %23 = call i32 @Dau_DsdIsConst0(ptr noundef %22)
  %24 = icmp ne i32 %23, 0
  br i1 %24, label %25, label %26

25:                                               ; preds = %21
  store i32 0, ptr %11, align 4, !tbaa !27
  br label %57

26:                                               ; preds = %21
  %27 = load ptr, ptr %7, align 8, !tbaa !64
  %28 = call i32 @Dau_DsdIsConst1(ptr noundef %27)
  %29 = icmp ne i32 %28, 0
  br i1 %29, label %30, label %31

30:                                               ; preds = %26
  store i32 1, ptr %11, align 4, !tbaa !27
  br label %56

31:                                               ; preds = %26
  %32 = load ptr, ptr %7, align 8, !tbaa !64
  %33 = call i32 @Dau_DsdIsVar(ptr noundef %32)
  %34 = icmp ne i32 %33, 0
  br i1 %34, label %35, label %45

35:                                               ; preds = %31
  %36 = load ptr, ptr %7, align 8, !tbaa !64
  %37 = call i32 @Dau_DsdReadVar(ptr noundef %36)
  %38 = trunc i32 %37 to i8
  %39 = load ptr, ptr %9, align 8, !tbaa !64
  %40 = load ptr, ptr %10, align 8, !tbaa !60
  %41 = load i32, ptr %40, align 4, !tbaa !27
  %42 = add nsw i32 %41, 1
  store i32 %42, ptr %40, align 4, !tbaa !27
  %43 = sext i32 %41 to i64
  %44 = getelementptr inbounds i8, ptr %39, i64 %43
  store i8 %38, ptr %44, align 1, !tbaa !124
  store i32 2, ptr %11, align 4, !tbaa !27
  br label %55

45:                                               ; preds = %31
  call void @llvm.lifetime.start.p0(i64 8000, ptr %13) #15
  %46 = load ptr, ptr %7, align 8, !tbaa !64
  %47 = getelementptr inbounds [2000 x i32], ptr %13, i64 0, i64 0
  call void @If_DsdMergeMatches(ptr noundef %46, ptr noundef %47)
  %48 = load ptr, ptr %7, align 8, !tbaa !64
  %49 = getelementptr inbounds [2000 x i32], ptr %13, i64 0, i64 0
  %50 = load ptr, ptr %6, align 8, !tbaa !3
  %51 = load ptr, ptr %8, align 8, !tbaa !76
  %52 = load ptr, ptr %9, align 8, !tbaa !64
  %53 = load ptr, ptr %10, align 8, !tbaa !60
  %54 = call i32 @If_DsdManAddDsd_rec(ptr noundef %48, ptr noundef %7, ptr noundef %49, ptr noundef %50, ptr noundef %51, ptr noundef %52, ptr noundef %53)
  store i32 %54, ptr %11, align 4, !tbaa !27
  call void @llvm.lifetime.end.p0(i64 8000, ptr %13) #15
  br label %55

55:                                               ; preds = %45, %35
  br label %56

56:                                               ; preds = %55, %30
  br label %57

57:                                               ; preds = %56, %25
  %58 = load i32, ptr %11, align 4, !tbaa !27
  %59 = load i32, ptr %12, align 4, !tbaa !27
  %60 = call i32 @Abc_LitNotCond(i32 noundef %58, i32 noundef %59)
  call void @llvm.lifetime.end.p0(i64 4, ptr %12) #15
  call void @llvm.lifetime.end.p0(i64 4, ptr %11) #15
  ret i32 %60
}