; Function Attrs: nounwind uwtable
define i32 @If_DsdManAddDsd(ptr noundef %0, ptr noundef %1, ptr noundef %2, ptr noundef %3, ptr noundef %4) local_unnamed_addr #4 {
  %6 = alloca [12 x i32], align 16
  %7 = alloca ptr, align 8
  %8 = alloca [2000 x i32], align 16
  store ptr %1, ptr %7, align 8, !tbaa !213
  %9 = load i8, ptr %1, align 1, !tbaa !137
  %10 = icmp eq i8 %9, 33
  br i1 %10, label %11, label %13

11:                                               ; preds = %5
  %12 = getelementptr inbounds nuw i8, ptr %1, i64 1
  store ptr %12, ptr %7, align 8, !tbaa !213
  %.pre = load i8, ptr %12, align 1, !tbaa !137
  br label %13

13:                                               ; preds = %11, %5
  %14 = phi i8 [ %.pre, %11 ], [ %9, %5 ]
  %15 = phi ptr [ %12, %11 ], [ %1, %5 ]
  %.0 = phi i32 [ 1, %11 ], [ 0, %5 ]
  switch i8 %14, label %Dau_DsdIsConst1.exit.thread [
    i8 48, label %Dau_DsdIsConst0.exit
    i8 49, label %Dau_DsdIsConst1.exit
  ]

Dau_DsdIsConst0.exit:                             ; preds = %13
  %16 = getelementptr inbounds nuw i8, ptr %15, i64 1
  %17 = load i8, ptr %16, align 1, !tbaa !137
  %.not = icmp eq i8 %17, 0
  br i1 %.not, label %49, label %Dau_DsdIsConst1.exit.thread

Dau_DsdIsConst1.exit:                             ; preds = %13
  %18 = getelementptr inbounds nuw i8, ptr %15, i64 1
  %19 = load i8, ptr %18, align 1, !tbaa !137
  %.not14 = icmp eq i8 %19, 0
  br i1 %.not14, label %49, label %Dau_DsdIsConst1.exit.thread

Dau_DsdIsConst1.exit.thread:                      ; preds = %13, %Dau_DsdIsConst0.exit, %Dau_DsdIsConst1.exit
  %20 = icmp eq i8 %14, 33
  %spec.select.idx.i = zext i1 %20 to i64
  %spec.select.i = getelementptr inbounds nuw i8, ptr %15, i64 %spec.select.idx.i
  %21 = load i8, ptr %spec.select.i, align 1, !tbaa !137
  %22 = add i8 %21, -123
  %narrow.i = icmp ult i8 %22, -26
  br i1 %narrow.i, label %29, label %23

23:                                               ; preds = %Dau_DsdIsConst1.exit.thread
  %24 = add nsw i8 %21, -97
  %25 = load i32, ptr %4, align 4, !tbaa !40
  %26 = add nsw i32 %25, 1
  store i32 %26, ptr %4, align 4, !tbaa !40
  %27 = sext i32 %25 to i64
  %28 = getelementptr inbounds i8, ptr %3, i64 %27
  store i8 %24, ptr %28, align 1, !tbaa !137
  br label %49

29:                                               ; preds = %Dau_DsdIsConst1.exit.thread
  call void @llvm.lifetime.start.p0(i64 8000, ptr nonnull %8) #39
  call void @llvm.lifetime.start.p0(i64 48, ptr nonnull %6) #39
  %.not27.i = icmp eq i8 %14, 0
  br i1 %.not27.i, label %If_DsdMergeMatches.exit, label %.lr.ph.i

.lr.ph.i:                                         ; preds = %29, %45
  %30 = phi i8 [ %47, %45 ], [ %14, %29 ]
  %indvars.iv.i = phi i64 [ %indvars.iv.next.i, %45 ], [ 0, %29 ]
  %.029.i = phi i32 [ %.1.i, %45 ], [ 0, %29 ]
  %31 = getelementptr inbounds nuw i32, ptr %8, i64 %indvars.iv.i
  store i32 0, ptr %31, align 4, !tbaa !40
  switch i8 %30, label %45 [
    i8 40, label %32
    i8 91, label %32
    i8 60, label %32
    i8 123, label %32
    i8 41, label %37
    i8 93, label %37
    i8 62, label %37
    i8 125, label %37
  ]

32:                                               ; preds = %.lr.ph.i, %.lr.ph.i, %.lr.ph.i, %.lr.ph.i
  %33 = add nsw i32 %.029.i, 1
  %34 = sext i32 %.029.i to i64
  %35 = getelementptr inbounds [12 x i32], ptr %6, i64 0, i64 %34
  %36 = trunc nuw nsw i64 %indvars.iv.i to i32
  store i32 %36, ptr %35, align 4, !tbaa !40
  br label %45

37:                                               ; preds = %.lr.ph.i, %.lr.ph.i, %.lr.ph.i, %.lr.ph.i
  %38 = add nsw i32 %.029.i, -1
  %39 = sext i32 %38 to i64
  %40 = getelementptr inbounds [12 x i32], ptr %6, i64 0, i64 %39
  %41 = load i32, ptr %40, align 4, !tbaa !40
  %42 = sext i32 %41 to i64
  %43 = getelementptr inbounds i32, ptr %8, i64 %42
  %44 = trunc nuw nsw i64 %indvars.iv.i to i32
  store i32 %44, ptr %43, align 4, !tbaa !40
  br label %45

45:                                               ; preds = %37, %32, %.lr.ph.i
  %.1.i = phi i32 [ %33, %32 ], [ %38, %37 ], [ %.029.i, %.lr.ph.i ]
  %indvars.iv.next.i = add nuw nsw i64 %indvars.iv.i, 1
  %46 = getelementptr inbounds nuw i8, ptr %15, i64 %indvars.iv.next.i
  %47 = load i8, ptr %46, align 1, !tbaa !137
  %.not.i = icmp eq i8 %47, 0
  br i1 %.not.i, label %If_DsdMergeMatches.exit, label %.lr.ph.i, !llvm.loop !218

If_DsdMergeMatches.exit:                          ; preds = %45, %29
  call void @llvm.lifetime.end.p0(i64 48, ptr nonnull %6) #39
  %48 = call i32 @If_DsdManAddDsd_rec(ptr noundef nonnull %15, ptr noundef nonnull %7, ptr noundef nonnull %8, ptr noundef %0, ptr noundef %2, ptr noundef %3, ptr noundef %4)
  call void @llvm.lifetime.end.p0(i64 8000, ptr nonnull %8) #39
  br label %49

49:                                               ; preds = %Dau_DsdIsConst1.exit, %Dau_DsdIsConst0.exit, %If_DsdMergeMatches.exit, %23
  %.07 = phi i32 [ 2, %23 ], [ %48, %If_DsdMergeMatches.exit ], [ 0, %Dau_DsdIsConst0.exit ], [ 1, %Dau_DsdIsConst1.exit ]
  %50 = xor i32 %.07, %.0
  ret i32 %50
}